target datalayout = "e-m:e-p270:32:32-p271:32:32-p272:64:64-i64:64-i128:128-f80:128-n8:16:32:64-S128"
target triple = "x86_64-pc-linux-gnu"

%struct.lxb_html_tree = type { ptr, ptr, ptr, ptr, ptr, ptr, ptr, %struct.lxb_html_tree_pending_table_t, ptr, i8, i8, i8, i8, i8, i8, ptr, ptr, ptr, i32, i64 }
%struct.lxb_html_tree_pending_table_t = type { ptr, i8 }
%struct.lxb_dom_node = type { %struct.lxb_dom_event_target, i64, i64, i64, ptr, ptr, ptr, ptr, ptr, ptr, ptr, i32, i64 }
%struct.lxb_dom_event_target = type { ptr }
%struct.lexbor_array_t = type { ptr, i64, i64 }
%struct.lxb_html_token_t = type { ptr, ptr, i64, i64, ptr, ptr, ptr, ptr, ptr, i64, i64, i32 }

; Function Attrs: nounwind uwtable
define internal ptr @lxb_html_tree_current_node(ptr noundef %0) #0 {
  %2 = alloca ptr, align 8
  %3 = alloca ptr, align 8
  store ptr %0, ptr %3, align 8
  %4 = load ptr, ptr %3, align 8
  %5 = getelementptr inbounds %struct.lxb_html_tree, ptr %4, i32 0, i32 4
  %6 = load ptr, ptr %5, align 8
  %7 = getelementptr inbounds %struct.lexbor_array_t, ptr %6, i32 0, i32 2
  %8 = load i64, ptr %7, align 8
  %9 = icmp eq i64 %8, 0
  br i1 %9, label %10, label %11

10:                                               ; preds = %1
  store ptr null, ptr %2, align 8
  br label %25

11:                                               ; preds = %1
  %12 = load ptr, ptr %3, align 8
  %13 = getelementptr inbounds %struct.lxb_html_tree, ptr %12, i32 0, i32 4
  %14 = load ptr, ptr %13, align 8
  %15 = getelementptr inbounds %struct.lexbor_array_t, ptr %14, i32 0, i32 0
  %16 = load ptr, ptr %15, align 8
  %17 = load ptr, ptr %3, align 8
  %18 = getelementptr inbounds %struct.lxb_html_tree, ptr %17, i32 0, i32 4
  %19 = load ptr, ptr %18, align 8
  %20 = getelementptr inbounds %struct.lexbor_array_t, ptr %19, i32 0, i32 2
  %21 = load i64, ptr %20, align 8
  %22 = sub i64 %21, 1
  %23 = getelementptr inbounds ptr, ptr %16, i64 %22
  %24 = load ptr, ptr %23, align 8
  store ptr %24, ptr %2, align 8
  br label %25

25:                                               ; preds = %11, %10
  %26 = load ptr, ptr %2, align 8
  ret ptr %26
}

; Function Attrs: nounwind uwtable
define internal zeroext i1 @lxb_html_tree_mathml_text_integration_point(ptr noundef %0) #0 {
  %2 = alloca i1, align 1
  %3 = alloca ptr, align 8
  store ptr %0, ptr %3, align 8
  %4 = load ptr, ptr %3, align 8
  %5 = getelementptr inbounds %struct.lxb_dom_node, ptr %4, i32 0, i32 3
  %6 = load i64, ptr %5, align 8
  %7 = icmp eq i64 %6, 3
  br i1 %7, label %8, label %14

8:                                                ; preds = %1
  %9 = load ptr, ptr %3, align 8
  %10 = getelementptr inbounds %struct.lxb_dom_node, ptr %9, i32 0, i32 1
  %11 = load i64, ptr %10, align 8
  switch i64 %11, label %13 [
    i64 128, label %12
    i64 130, label %12
    i64 129, label %12
    i64 131, label %12
    i64 132, label %12
  ]

12:                                               ; preds = %8, %8, %8, %8, %8
  store i1 true, ptr %2, align 1
  br label %15

13:                                               ; preds = %8
  br label %14

14:                                               ; preds = %13, %1
  store i1 false, ptr %2, align 1
  br label %15

15:                                               ; preds = %14, %12
  %16 = load i1, ptr %2, align 1
  ret i1 %16
}

; Function Attrs: nounwind uwtable
define internal ptr @lxb_html_tree_adjusted_current_node(ptr noundef %0) #0 {
  %2 = alloca ptr, align 8
  %3 = alloca ptr, align 8
  store ptr %0, ptr %3, align 8
  %4 = load ptr, ptr %3, align 8
  %5 = getelementptr inbounds %struct.lxb_html_tree, ptr %4, i32 0, i32 2
  %6 = load ptr, ptr %5, align 8
  %7 = icmp ne ptr %6, null
  br i1 %7, label %8, label %19

8:                                                ; preds = %1
  %9 = load ptr, ptr %3, align 8
  %10 = getelementptr inbounds %struct.lxb_html_tree, ptr %9, i32 0, i32 4
  %11 = load ptr, ptr %10, align 8
  %12 = getelementptr inbounds %struct.lexbor_array_t, ptr %11, i32 0, i32 2
  %13 = load i64, ptr %12, align 8
  %14 = icmp eq i64 %13, 1
  br i1 %14, label %15, label %19

15:                                               ; preds = %8
  %16 = load ptr, ptr %3, align 8
  %17 = getelementptr inbounds %struct.lxb_html_tree, ptr %16, i32 0, i32 2
  %18 = load ptr, ptr %17, align 8
  store ptr %18, ptr %2, align 8
  br label %22

19:                                               ; preds = %8, %1
  %20 = load ptr, ptr %3, align 8
  %21 = call ptr @lxb_html_tree_current_node(ptr noundef %20)
  store ptr %21, ptr %2, align 8
  br label %22

22:                                               ; preds = %19, %15
  %23 = load ptr, ptr %2, align 8
  ret ptr %23
}

; Function Attrs: nounwind uwtable
define hidden zeroext i1 @lxb_html_tree_construction_dispatcher(ptr noundef %0, ptr noundef %1) #0 {
  %3 = alloca i1, align 1
  %4 = alloca ptr, align 8
  %5 = alloca ptr, align 8
  %6 = alloca ptr, align 8
  store ptr %0, ptr %4, align 8
  store ptr %1, ptr %5, align 8
  %7 = load ptr, ptr %4, align 8
  %8 = call ptr @lxb_html_tree_adjusted_current_node(ptr noundef %7)
  store ptr %8, ptr %6, align 8
  %9 = load ptr, ptr %6, align 8
  %10 = icmp eq ptr %9, null
  br i1 %10, label %16, label %11

11:                                               ; preds = %2
  %12 = load ptr, ptr %6, align 8
  %13 = getelementptr inbounds %struct.lxb_dom_node, ptr %12, i32 0, i32 3
  %14 = load i64, ptr %13, align 8
  %15 = icmp eq i64 %14, 2
  br i1 %15, label %16, label %23

16:                                               ; preds = %11, %2
  %17 = load ptr, ptr %4, align 8
  %18 = getelementptr inbounds %struct.lxb_html_tree, ptr %17, i32 0, i32 15
  %19 = load ptr, ptr %18, align 8
  %20 = load ptr, ptr %4, align 8
  %21 = load ptr, ptr %5, align 8
  %22 = call zeroext i1 %19(ptr noundef %20, ptr noundef %21)
  store i1 %22, ptr %3, align 1
  br label %128

23:                                               ; preds = %11
  %24 = load ptr, ptr %6, align 8
  %25 = call zeroext i1 @lxb_html_tree_mathml_text_integration_point(ptr noundef %24)
  br i1 %25, label %26, label %62

26:                                               ; preds = %23
  %27 = load ptr, ptr %5, align 8
  %28 = getelementptr inbounds %struct.lxb_html_token_t, ptr %27, i32 0, i32 11
  %29 = load i32, ptr %28, align 8
  %30 = and i32 %29, 1
  %31 = icmp eq i32 %30, 0
  br i1 %31, label %32, label %49

32:                                               ; preds = %26
  %33 = load ptr, ptr %5, align 8
  %34 = getelementptr inbounds %struct.lxb_html_token_t, ptr %33, i32 0, i32 10
  %35 = load i64, ptr %34, align 8
  %36 = icmp ne i64 %35, 127
  br i1 %36, label %37, label %49

37:                                               ; preds = %32
  %38 = load ptr, ptr %5, align 8
  %39 = getelementptr inbounds %struct.lxb_html_token_t, ptr %38, i32 0, i32 10
  %40 = load i64, ptr %39, align 8
  %41 = icmp ne i64 %40, 118
  br i1 %41, label %42, label %49

42:                                               ; preds = %37
  %43 = load ptr, ptr %4, align 8
  %44 = getelementptr inbounds %struct.lxb_html_tree, ptr %43, i32 0, i32 15
  %45 = load ptr, ptr %44, align 8
  %46 = load ptr, ptr %4, align 8
  %47 = load ptr, ptr %5, align 8
  %48 = call zeroext i1 %45(ptr noundef %46, ptr noundef %47)
  store i1 %48, ptr %3, align 1
  br label %128

49:                                               ; preds = %37, %32, %26
  %50 = load ptr, ptr %5, align 8
  %51 = getelementptr inbounds %struct.lxb_html_token_t, ptr %50, i32 0, i32 10
  %52 = load i64, ptr %51, align 8
  %53 = icmp eq i64 %52, 2
  br i1 %53, label %54, label %61

54:                                               ; preds = %49
  %55 = load ptr, ptr %4, align 8
  %56 = getelementptr inbounds %struct.lxb_html_tree, ptr %55, i32 0, i32 15
  %57 = load ptr, ptr %56, align 8
  %58 = load ptr, ptr %4, align 8
  %59 = load ptr, ptr %5, align 8
  %60 = call zeroext i1 %57(ptr noundef %58, ptr noundef %59)
  store i1 %60, ptr %3, align 1
  br label %128

61:                                               ; preds = %49
  br label %62

62:                                               ; preds = %61, %23
  %63 = load ptr, ptr %6, align 8
  %64 = getelementptr inbounds %struct.lxb_dom_node, ptr %63, i32 0, i32 1
  %65 = load i64, ptr %64, align 8
  %66 = icmp eq i64 %65, 16
  br i1 %66, label %67, label %90

67:                                               ; preds = %62
  %68 = load ptr, ptr %6, align 8
  %69 = getelementptr inbounds %struct.lxb_dom_node, ptr %68, i32 0, i32 3
  %70 = load i64, ptr %69, align 8
  %71 = icmp eq i64 %70, 3
  br i1 %71, label %72, label %90

72:                                               ; preds = %67
  %73 = load ptr, ptr %5, align 8
  %74 = getelementptr inbounds %struct.lxb_html_token_t, ptr %73, i32 0, i32 11
  %75 = load i32, ptr %74, align 8
  %76 = and i32 %75, 1
  %77 = icmp eq i32 %76, 0
  br i1 %77, label %78, label %90

78:                                               ; preds = %72
  %79 = load ptr, ptr %5, align 8
  %80 = getelementptr inbounds %struct.lxb_html_token_t, ptr %79, i32 0, i32 10
  %81 = load i64, ptr %80, align 8
  %82 = icmp eq i64 %81, 175
  br i1 %82, label %83, label %90

83:                                               ; preds = %78
  %84 = load ptr, ptr %4, align 8
  %85 = getelementptr inbounds %struct.lxb_html_tree, ptr %84, i32 0, i32 15
  %86 = load ptr, ptr %85, align 8
  %87 = load ptr, ptr %4, align 8
  %88 = load ptr, ptr %5, align 8
  %89 = call zeroext i1 %86(ptr noundef %87, ptr noundef %88)
  store i1 %89, ptr %3, align 1
  br label %128

90:                                               ; preds = %78, %72, %67, %62
  %91 = load ptr, ptr %6, align 8
  %92 = call zeroext i1 @lxb_html_tree_html_integration_point(ptr noundef %91)
  br i1 %92, label %93, label %112

93:                                               ; preds = %90
  %94 = load ptr, ptr %5, align 8
  %95 = getelementptr inbounds %struct.lxb_html_token_t, ptr %94, i32 0, i32 11
  %96 = load i32, ptr %95, align 8
  %97 = and i32 %96, 1
  %98 = icmp eq i32 %97, 0
  br i1 %98, label %104, label %99

99:                                               ; preds = %93
  %100 = load ptr, ptr %5, align 8
  %101 = getelementptr inbounds %struct.lxb_html_token_t, ptr %100, i32 0, i32 10
  %102 = load i64, ptr %101, align 8
  %103 = icmp eq i64 %102, 2
  br i1 %103, label %104, label %111

104:                                              ; preds = %99, %93
  %105 = load ptr, ptr %4, align 8
  %106 = getelementptr inbounds %struct.lxb_html_tree, ptr %105, i32 0, i32 15
  %107 = load ptr, ptr %106, align 8
  %108 = load ptr, ptr %4, align 8
  %109 = load ptr, ptr %5, align 8
  %110 = call zeroext i1 %107(ptr noundef %108, ptr noundef %109)
  store i1 %110, ptr %3, align 1
  br label %128

111:                                              ; preds = %99
  br label %112

112:                                              ; preds = %111, %90
  %113 = load ptr, ptr %5, align 8
  %114 = getelementptr inbounds %struct.lxb_html_token_t, ptr %113, i32 0, i32 10
  %115 = load i64, ptr %114, align 8
  %116 = icmp eq i64 %115, 1
  br i1 %116, label %117, label %124

117:                                              ; preds = %112
  %118 = load ptr, ptr %4, align 8
  %119 = getelementptr inbounds %struct.lxb_html_tree, ptr %118, i32 0, i32 15
  %120 = load ptr, ptr %119, align 8
  %121 = load ptr, ptr %4, align 8
  %122 = load ptr, ptr %5, align 8
  %123 = call zeroext i1 %120(ptr noundef %121, ptr noundef %122)
  store i1 %123, ptr %3, align 1
  br label %128

124:                                              ; preds = %112
  %125 = load ptr, ptr %4, align 8
  %126 = load ptr, ptr %5, align 8
  %127 = call zeroext i1 @lxb_html_tree_insertion_mode_foreign_content(ptr noundef %125, ptr noundef %126)
  store i1 %127, ptr %3, align 1
  br label %128

128:                                              ; preds = %124, %117, %104, %83, %54, %42, %16
  %129 = load i1, ptr %3, align 1
  ret i1 %129
}