; Function Attrs: nounwind uwtable
define hidden zeroext i1 @lxb_html_tree_construction_dispatcher(ptr noundef %0, ptr noundef %1) local_unnamed_addr #0 {
  %3 = getelementptr inbounds i8, ptr %0, i64 16
  %4 = load ptr, ptr %3, align 8
  %.not.i = icmp ne ptr %4, null
  %.phi.trans.insert.i = getelementptr i8, ptr %0, i64 32
  %.val.pre.i = load ptr, ptr %.phi.trans.insert.i, align 8
  %.phi.trans.insert7.i = getelementptr inbounds i8, ptr %.val.pre.i, i64 16
  %.pre.i = load i64, ptr %.phi.trans.insert7.i, align 8
  %5 = icmp eq i64 %.pre.i, 1
  %or.cond.i = select i1 %.not.i, i1 %5, i1 false
  br i1 %or.cond.i, label %lxb_html_tree_adjusted_current_node.exit.thread42, label %._crit_edge.i

._crit_edge.i:                                    ; preds = %2
  %6 = icmp eq i64 %.pre.i, 0
  br i1 %6, label %lxb_html_tree_adjusted_current_node.exit.thread, label %lxb_html_tree_adjusted_current_node.exit

lxb_html_tree_adjusted_current_node.exit:         ; preds = %._crit_edge.i
  %7 = load ptr, ptr %.val.pre.i, align 8
  %8 = getelementptr ptr, ptr %7, i64 %.pre.i
  %9 = getelementptr i8, ptr %8, i64 -8
  %10 = load ptr, ptr %9, align 8
  %11 = icmp eq ptr %10, null
  br i1 %11, label %lxb_html_tree_adjusted_current_node.exit.thread, label %lxb_html_tree_adjusted_current_node.exit.thread42

lxb_html_tree_adjusted_current_node.exit.thread42: ; preds = %2, %lxb_html_tree_adjusted_current_node.exit
  %.0.i44 = phi ptr [ %10, %lxb_html_tree_adjusted_current_node.exit ], [ %4, %2 ]
  %12 = getelementptr inbounds i8, ptr %.0.i44, i64 24
  %13 = load i64, ptr %12, align 8
  switch i64 %13, label %.thread [
    i64 2, label %lxb_html_tree_adjusted_current_node.exit.thread
    i64 3, label %17
  ]

lxb_html_tree_adjusted_current_node.exit.thread:  ; preds = %lxb_html_tree_adjusted_current_node.exit.thread42, %._crit_edge.i, %lxb_html_tree_adjusted_current_node.exit
  %14 = getelementptr inbounds i8, ptr %0, i64 88
  %15 = load ptr, ptr %14, align 8
  %16 = tail call zeroext i1 %15(ptr noundef nonnull %0, ptr noundef %1) #9
  br label %74

17:                                               ; preds = %lxb_html_tree_adjusted_current_node.exit.thread42
  %18 = getelementptr inbounds i8, ptr %.0.i44, i64 8
  %19 = load i64, ptr %18, align 8
  %.off.i = add i64 %19, -128
  %switch.i = icmp ult i64 %.off.i, 5
  br i1 %switch.i, label %20, label %lxb_html_tree_mathml_text_integration_point.exit

20:                                               ; preds = %17
  %21 = getelementptr inbounds i8, ptr %1, i64 88
  %22 = load i32, ptr %21, align 8
  %23 = and i32 %22, 1
  %24 = icmp eq i32 %23, 0
  %25 = getelementptr inbounds i8, ptr %1, i64 80
  %26 = load i64, ptr %25, align 8
  br i1 %24, label %27, label %32

27:                                               ; preds = %20
  switch i64 %26, label %28 [
    i64 127, label %.thread
    i64 118, label %.thread
  ]

28:                                               ; preds = %27
  %29 = getelementptr inbounds i8, ptr %0, i64 88
  %30 = load ptr, ptr %29, align 8
  %31 = tail call zeroext i1 %30(ptr noundef nonnull %0, ptr noundef nonnull %1) #9
  br label %74

32:                                               ; preds = %20
  %33 = icmp eq i64 %26, 2
  br i1 %33, label %34, label %.thread

34:                                               ; preds = %32
  %35 = getelementptr inbounds i8, ptr %0, i64 88
  %36 = load ptr, ptr %35, align 8
  %37 = tail call zeroext i1 %36(ptr noundef nonnull %0, ptr noundef nonnull %1) #9
  br label %74

lxb_html_tree_mathml_text_integration_point.exit: ; preds = %17
  %.not = icmp eq i64 %19, 16
  br i1 %.not, label %38, label %.thread

38:                                               ; preds = %lxb_html_tree_mathml_text_integration_point.exit
  %39 = getelementptr inbounds i8, ptr %1, i64 88
  %40 = load i32, ptr %39, align 8
  %41 = and i32 %40, 1
  %42 = icmp eq i32 %41, 0
  br i1 %42, label %43, label %.thread

43:                                               ; preds = %38
  %44 = getelementptr inbounds i8, ptr %1, i64 80
  %45 = load i64, ptr %44, align 8
  %46 = icmp eq i64 %45, 175
  br i1 %46, label %47, label %.thread

47:                                               ; preds = %43
  %48 = getelementptr inbounds i8, ptr %0, i64 88
  %49 = load ptr, ptr %48, align 8
  %50 = tail call zeroext i1 %49(ptr noundef nonnull %0, ptr noundef nonnull %1) #9
  br label %74

.thread:                                          ; preds = %27, %27, %32, %lxb_html_tree_adjusted_current_node.exit.thread42, %lxb_html_tree_mathml_text_integration_point.exit, %43, %38
  %51 = tail call zeroext i1 @lxb_html_tree_html_integration_point(ptr noundef nonnull %.0.i44)
  br i1 %51, label %52, label %.thread._crit_edge

.thread._crit_edge:                               ; preds = %.thread
  %.phi.trans.insert48 = getelementptr inbounds i8, ptr %1, i64 80
  %.pre49 = load i64, ptr %.phi.trans.insert48, align 8
  br label %65

52:                                               ; preds = %.thread
  %53 = getelementptr inbounds i8, ptr %1, i64 88
  %54 = load i32, ptr %53, align 8
  %55 = and i32 %54, 1
  %56 = icmp eq i32 %55, 0
  br i1 %56, label %61, label %57

57:                                               ; preds = %52
  %58 = getelementptr inbounds i8, ptr %1, i64 80
  %59 = load i64, ptr %58, align 8
  %60 = icmp eq i64 %59, 2
  br i1 %60, label %61, label %65

61:                                               ; preds = %57, %52
  %62 = getelementptr inbounds i8, ptr %0, i64 88
  %63 = load ptr, ptr %62, align 8
  %64 = tail call zeroext i1 %63(ptr noundef nonnull %0, ptr noundef nonnull %1) #9
  br label %74

65:                                               ; preds = %.thread._crit_edge, %57
  %66 = phi i64 [ %.pre49, %.thread._crit_edge ], [ %59, %57 ]
  %67 = icmp eq i64 %66, 1
  br i1 %67, label %68, label %72

68:                                               ; preds = %65
  %69 = getelementptr inbounds i8, ptr %0, i64 88
  %70 = load ptr, ptr %69, align 8
  %71 = tail call zeroext i1 %70(ptr noundef nonnull %0, ptr noundef nonnull %1) #9
  br label %74

72:                                               ; preds = %65
  %73 = tail call zeroext i1 @lxb_html_tree_insertion_mode_foreign_content(ptr noundef nonnull %0, ptr noundef nonnull %1) #9
  br label %74

74:                                               ; preds = %72, %68, %61, %47, %34, %28, %lxb_html_tree_adjusted_current_node.exit.thread
  %.0 = phi i1 [ %16, %lxb_html_tree_adjusted_current_node.exit.thread ], [ %31, %28 ], [ %37, %34 ], [ %50, %47 ], [ %64, %61 ], [ %71, %68 ], [ %73, %72 ]
  ret i1 %.0
}